target datalayout = "e-m:e-p270:32:32-p271:32:32-p272:64:64-i64:64-i128:128-f80:128-n8:16:32:64-S128"
target triple = "x86_64-pc-linux-gnu"

%struct.WaveFile = type { %struct.WaveChunk, %struct.WaveFormat, %struct.WaveFact, i64, ptr, i32, i32, i32 }
%struct.WaveChunk = type { i32, i32, i64, ptr, i64 }
%struct.WaveFormat = type { i16, i16, i16, i32, i32, i16, i16, i16, i16, i32, i32, [16 x i8] }
%struct.WaveFact = type { i32, i32 }

@.str.55 = private unnamed_addr constant [62 x i8] c"Invalid number of sample frames in WAVE fact chunk (too many)\00", align 1
@.str.71 = private unnamed_addr constant [26 x i8] c"Truncated IMA ADPCM block\00", align 1

; Function Attrs: nounwind uwtable
define internal i64 @WaveAdjustToFactValue(ptr noundef %0, i64 noundef %1) #0 {
  %3 = alloca i64, align 8
  %4 = alloca ptr, align 8
  %5 = alloca i64, align 8
  store ptr %0, ptr %4, align 8
  store i64 %1, ptr %5, align 8
  %6 = load ptr, ptr %4, align 8
  %7 = getelementptr inbounds nuw %struct.WaveFile, ptr %6, i32 0, i32 2
  %8 = getelementptr inbounds nuw %struct.WaveFact, ptr %7, i32 0, i32 0
  %9 = load i32, ptr %8, align 8
  %10 = icmp eq i32 %9, 2
  br i1 %10, label %11, label %42

11:                                               ; preds = %2
  %12 = load ptr, ptr %4, align 8
  %13 = getelementptr inbounds nuw %struct.WaveFile, ptr %12, i32 0, i32 7
  %14 = load i32, ptr %13, align 8
  %15 = icmp eq i32 %14, 2
  br i1 %15, label %16, label %26

16:                                               ; preds = %11
  %17 = load i64, ptr %5, align 8
  %18 = load ptr, ptr %4, align 8
  %19 = getelementptr inbounds nuw %struct.WaveFile, ptr %18, i32 0, i32 2
  %20 = getelementptr inbounds nuw %struct.WaveFact, ptr %19, i32 0, i32 1
  %21 = load i32, ptr %20, align 4
  %22 = zext i32 %21 to i64
  %23 = icmp slt i64 %17, %22
  br i1 %23, label %24, label %26

24:                                               ; preds = %16
  %25 = call zeroext i1 (ptr, ...) @SDL_SetError_REAL(ptr noundef @.str.55)
  store i64 -1, ptr %3, align 8
  br label %44

26:                                               ; preds = %16, %11
  %27 = load i64, ptr %5, align 8
  %28 = load ptr, ptr %4, align 8
  %29 = getelementptr inbounds nuw %struct.WaveFile, ptr %28, i32 0, i32 2
  %30 = getelementptr inbounds nuw %struct.WaveFact, ptr %29, i32 0, i32 1
  %31 = load i32, ptr %30, align 4
  %32 = zext i32 %31 to i64
  %33 = icmp sgt i64 %27, %32
  br i1 %33, label %34, label %40

34:                                               ; preds = %26
  %35 = load ptr, ptr %4, align 8
  %36 = getelementptr inbounds nuw %struct.WaveFile, ptr %35, i32 0, i32 2
  %37 = getelementptr inbounds nuw %struct.WaveFact, ptr %36, i32 0, i32 1
  %38 = load i32, ptr %37, align 4
  %39 = zext i32 %38 to i64
  store i64 %39, ptr %3, align 8
  br label %44

40:                                               ; preds = %26
  br label %41

41:                                               ; preds = %40
  br label %42

42:                                               ; preds = %41, %2
  %43 = load i64, ptr %5, align 8
  store i64 %43, ptr %3, align 8
  br label %44

44:                                               ; preds = %42, %34, %24
  %45 = load i64, ptr %3, align 8
  ret i64 %45
}

; Function Attrs: nounwind uwtable
define internal zeroext i1 @IMA_ADPCM_CalculateSampleFrames(ptr noundef %0, i64 noundef %1) #0 {
  %3 = alloca i1, align 1
  %4 = alloca ptr, align 8
  %5 = alloca i64, align 8
  %6 = alloca ptr, align 8
  %7 = alloca i64, align 8
  %8 = alloca i64, align 8
  %9 = alloca i64, align 8
  %10 = alloca i64, align 8
  %11 = alloca i32, align 4
  %12 = alloca i64, align 8
  %13 = alloca i64, align 8
  %14 = alloca i64, align 8
  store ptr %0, ptr %4, align 8
  store i64 %1, ptr %5, align 8
  call void @llvm.lifetime.start.p0(i64 8, ptr %6) #7
  %15 = load ptr, ptr %4, align 8
  %16 = getelementptr inbounds nuw %struct.WaveFile, ptr %15, i32 0, i32 1
  store ptr %16, ptr %6, align 8
  call void @llvm.lifetime.start.p0(i64 8, ptr %7) #7
  %17 = load ptr, ptr %6, align 8
  %18 = getelementptr inbounds nuw %struct.WaveFormat, ptr %17, i32 0, i32 2
  %19 = load i16, ptr %18, align 4
  %20 = zext i16 %19 to i64
  %21 = mul i64 %20, 4
  store i64 %21, ptr %7, align 8
  call void @llvm.lifetime.start.p0(i64 8, ptr %8) #7
  %22 = load ptr, ptr %6, align 8
  %23 = getelementptr inbounds nuw %struct.WaveFormat, ptr %22, i32 0, i32 2
  %24 = load i16, ptr %23, align 4
  %25 = zext i16 %24 to i64
  %26 = mul i64 %25, 4
  store i64 %26, ptr %8, align 8
  call void @llvm.lifetime.start.p0(i64 8, ptr %9) #7
  %27 = load i64, ptr %5, align 8
  %28 = load ptr, ptr %6, align 8
  %29 = getelementptr inbounds nuw %struct.WaveFormat, ptr %28, i32 0, i32 5
  %30 = load i16, ptr %29, align 4
  %31 = zext i16 %30 to i64
  %32 = udiv i64 %27, %31
  store i64 %32, ptr %9, align 8
  call void @llvm.lifetime.start.p0(i64 8, ptr %10) #7
  %33 = load i64, ptr %5, align 8
  %34 = load ptr, ptr %6, align 8
  %35 = getelementptr inbounds nuw %struct.WaveFormat, ptr %34, i32 0, i32 5
  %36 = load i16, ptr %35, align 4
  %37 = zext i16 %36 to i64
  %38 = urem i64 %33, %37
  store i64 %38, ptr %10, align 8
  %39 = load ptr, ptr %4, align 8
  %40 = getelementptr inbounds nuw %struct.WaveFile, ptr %39, i32 0, i32 6
  %41 = load i32, ptr %40, align 4
  %42 = icmp eq i32 %41, 1
  br i1 %42, label %48, label %43

43:                                               ; preds = %2
  %44 = load ptr, ptr %4, align 8
  %45 = getelementptr inbounds nuw %struct.WaveFile, ptr %44, i32 0, i32 6
  %46 = load i32, ptr %45, align 4
  %47 = icmp eq i32 %46, 2
  br i1 %47, label %48, label %58

48:                                               ; preds = %43, %2
  %49 = load i64, ptr %5, align 8
  %50 = load i64, ptr %7, align 8
  %51 = icmp ult i64 %49, %50
  br i1 %51, label %55, label %52

52:                                               ; preds = %48
  %53 = load i64, ptr %10, align 8
  %54 = icmp ugt i64 %53, 0
  br i1 %54, label %55, label %57

55:                                               ; preds = %52, %48
  %56 = call zeroext i1 (ptr, ...) @SDL_SetError_REAL(ptr noundef @.str.71)
  store i1 %56, ptr %3, align 1
  store i32 1, ptr %11, align 4
  br label %140

57:                                               ; preds = %52
  br label %58

58:                                               ; preds = %57, %43
  %59 = load i64, ptr %9, align 8
  %60 = load ptr, ptr %6, align 8
  %61 = getelementptr inbounds nuw %struct.WaveFormat, ptr %60, i32 0, i32 9
  %62 = load i32, ptr %61, align 4
  %63 = zext i32 %62 to i64
  %64 = mul i64 %59, %63
  %65 = load ptr, ptr %4, align 8
  %66 = getelementptr inbounds nuw %struct.WaveFile, ptr %65, i32 0, i32 3
  store i64 %64, ptr %66, align 8
  %67 = load i64, ptr %10, align 8
  %68 = icmp ugt i64 %67, 0
  br i1 %68, label %69, label %126

69:                                               ; preds = %58
  %70 = load ptr, ptr %4, align 8
  %71 = getelementptr inbounds nuw %struct.WaveFile, ptr %70, i32 0, i32 6
  %72 = load i32, ptr %71, align 4
  %73 = icmp eq i32 %72, 3
  br i1 %73, label %74, label %125

74:                                               ; preds = %69
  %75 = load i64, ptr %10, align 8
  %76 = load i64, ptr %7, align 8
  %77 = sub i64 %76, 2
  %78 = icmp ugt i64 %75, %77
  br i1 %78, label %79, label %125

79:                                               ; preds = %74
  call void @llvm.lifetime.start.p0(i64 8, ptr %12) #7
  store i64 1, ptr %12, align 8
  %80 = load i64, ptr %10, align 8
  %81 = load i64, ptr %7, align 8
  %82 = icmp ugt i64 %80, %81
  br i1 %82, label %83, label %107

83:                                               ; preds = %79
  call void @llvm.lifetime.start.p0(i64 8, ptr %13) #7
  %84 = load i64, ptr %10, align 8
  %85 = load i64, ptr %7, align 8
  %86 = sub i64 %84, %85
  store i64 %86, ptr %13, align 8
  call void @llvm.lifetime.start.p0(i64 8, ptr %14) #7
  %87 = load i64, ptr %13, align 8
  %88 = load i64, ptr %8, align 8
  %89 = urem i64 %87, %88
  store i64 %89, ptr %14, align 8
  %90 = load i64, ptr %13, align 8
  %91 = load i64, ptr %8, align 8
  %92 = udiv i64 %90, %91
  %93 = mul i64 %92, 8
  %94 = load i64, ptr %12, align 8
  %95 = add i64 %94, %93
  store i64 %95, ptr %12, align 8
  %96 = load i64, ptr %14, align 8
  %97 = load i64, ptr %8, align 8
  %98 = sub i64 %97, 4
  %99 = icmp ugt i64 %96, %98
  br i1 %99, label %100, label %106

100:                                              ; preds = %83
  %101 = load i64, ptr %14, align 8
  %102 = urem i64 %101, 4
  %103 = mul i64 %102, 2
  %104 = load i64, ptr %12, align 8
  %105 = add i64 %104, %103
  store i64 %105, ptr %12, align 8
  br label %106

106:                                              ; preds = %100, %83
  call void @llvm.lifetime.end.p0(i64 8, ptr %14) #7
  call void @llvm.lifetime.end.p0(i64 8, ptr %13) #7
  br label %107

107:                                              ; preds = %106, %79
  %108 = load i64, ptr %12, align 8
  %109 = load ptr, ptr %6, align 8
  %110 = getelementptr inbounds nuw %struct.WaveFormat, ptr %109, i32 0, i32 9
  %111 = load i32, ptr %110, align 4
  %112 = zext i32 %111 to i64
  %113 = icmp ugt i64 %108, %112
  br i1 %113, label %114, label %119

114:                                              ; preds = %107
  %115 = load ptr, ptr %6, align 8
  %116 = getelementptr inbounds nuw %struct.WaveFormat, ptr %115, i32 0, i32 9
  %117 = load i32, ptr %116, align 4
  %118 = zext i32 %117 to i64
  store i64 %118, ptr %12, align 8
  br label %119

119:                                              ; preds = %114, %107
  %120 = load i64, ptr %12, align 8
  %121 = load ptr, ptr %4, align 8
  %122 = getelementptr inbounds nuw %struct.WaveFile, ptr %121, i32 0, i32 3
  %123 = load i64, ptr %122, align 8
  %124 = add i64 %123, %120
  store i64 %124, ptr %122, align 8
  call void @llvm.lifetime.end.p0(i64 8, ptr %12) #7
  br label %125

125:                                              ; preds = %119, %74, %69
  br label %126

126:                                              ; preds = %125, %58
  %127 = load ptr, ptr %4, align 8
  %128 = load ptr, ptr %4, align 8
  %129 = getelementptr inbounds nuw %struct.WaveFile, ptr %128, i32 0, i32 3
  %130 = load i64, ptr %129, align 8
  %131 = call i64 @WaveAdjustToFactValue(ptr noundef %127, i64 noundef %130)
  %132 = load ptr, ptr %4, align 8
  %133 = getelementptr inbounds nuw %struct.WaveFile, ptr %132, i32 0, i32 3
  store i64 %131, ptr %133, align 8
  %134 = load ptr, ptr %4, align 8
  %135 = getelementptr inbounds nuw %struct.WaveFile, ptr %134, i32 0, i32 3
  %136 = load i64, ptr %135, align 8
  %137 = icmp slt i64 %136, 0
  br i1 %137, label %138, label %139

138:                                              ; preds = %126
  store i1 false, ptr %3, align 1
  store i32 1, ptr %11, align 4
  br label %140

139:                                              ; preds = %126
  store i1 true, ptr %3, align 1
  store i32 1, ptr %11, align 4
  br label %140

140:                                              ; preds = %139, %138, %55
  call void @llvm.lifetime.end.p0(i64 8, ptr %10) #7
  call void @llvm.lifetime.end.p0(i64 8, ptr %9) #7
  call void @llvm.lifetime.end.p0(i64 8, ptr %8) #7
  call void @llvm.lifetime.end.p0(i64 8, ptr %7) #7
  call void @llvm.lifetime.end.p0(i64 8, ptr %6) #7
  %141 = load i1, ptr %3, align 1
  ret i1 %141
}