; Function Attrs: nounwind uwtable
define internal fastcc zeroext i1 @IMA_ADPCM_CalculateSampleFrames(ptr noundef nonnull captures(none) %0, i64 noundef %1) unnamed_addr #0 {
  %3 = getelementptr inbounds nuw i8, ptr %0, i64 36
  %4 = load i16, ptr %3, align 4
  %5 = zext i16 %4 to i64
  %6 = shl nuw nsw i64 %5, 2
  %7 = getelementptr inbounds nuw i8, ptr %0, i64 48
  %8 = load i16, ptr %7, align 4
  %9 = zext i16 %8 to i64
  %10 = udiv i64 %1, %9
  %11 = urem i64 %1, %9
  %12 = getelementptr inbounds nuw i8, ptr %0, i64 108
  %13 = load i32, ptr %12, align 4
  %.off = add i32 %13, -1
  %switch = icmp ult i32 %.off, 2
  br i1 %switch, label %14, label %24

14:                                               ; preds = %2
  %15 = icmp ult i64 %1, %6
  %16 = icmp ne i64 %11, 0
  %or.cond = or i1 %15, %16
  br i1 %or.cond, label %22, label %.thread

.thread:                                          ; preds = %14
  %17 = getelementptr inbounds nuw i8, ptr %0, i64 56
  %18 = load i32, ptr %17, align 4
  %19 = zext i32 %18 to i64
  %20 = mul i64 %10, %19
  %21 = getelementptr inbounds nuw i8, ptr %0, i64 88
  store i64 %20, ptr %21, align 8
  br label %thread-pre-split

22:                                               ; preds = %14
  %23 = tail call zeroext i1 (ptr, ...) @SDL_SetError_REAL(ptr noundef nonnull @.str.71) #8
  br label %66

24:                                               ; preds = %2
  %25 = getelementptr inbounds nuw i8, ptr %0, i64 56
  %26 = load i32, ptr %25, align 4
  %27 = zext i32 %26 to i64
  %28 = mul i64 %10, %27
  %29 = getelementptr inbounds nuw i8, ptr %0, i64 88
  store i64 %28, ptr %29, align 8
  %.not = icmp eq i64 %11, 0
  br i1 %.not, label %thread-pre-split, label %30

30:                                               ; preds = %24
  %31 = icmp eq i32 %13, 3
  %32 = add nsw i64 %6, -2
  %33 = icmp ugt i64 %11, %32
  %or.cond49 = select i1 %31, i1 %33, i1 false
  br i1 %or.cond49, label %34, label %thread-pre-split

34:                                               ; preds = %30
  %35 = icmp samesign ugt i64 %11, %6
  br i1 %35, label %36, label %47

36:                                               ; preds = %34
  %37 = sub nuw nsw i64 %11, %6
  %.lhs.trunc = trunc nuw i64 %37 to i16
  %.rhs.trunc = trunc nuw i64 %6 to i16
  %38 = urem i16 %.lhs.trunc, %.rhs.trunc
  %.zext = zext i16 %38 to i64
  %39 = udiv i16 %.lhs.trunc, %.rhs.trunc
  %.zext58 = zext nneg i16 %39 to i64
  %40 = shl nuw nsw i64 %.zext58, 3
  %41 = add nsw i64 %6, -4
  %42 = icmp ult i64 %41, %.zext
  %43 = shl nuw nsw i64 %.zext, 1
  %44 = and i64 %43, 6
  %45 = select i1 %42, i64 %44, i64 0
  %46 = or disjoint i64 %45, %40
  %.1 = or disjoint i64 %46, 1
  br label %47

47:                                               ; preds = %36, %34
  %.042 = phi i64 [ %.1, %36 ], [ 1, %34 ]
  %spec.select = tail call i64 @llvm.umin.i64(i64 %.042, i64 %27)
  %48 = add i64 %spec.select, %28
  store i64 %48, ptr %29, align 8
  br label %thread-pre-split

thread-pre-split:                                 ; preds = %30, %.thread, %47, %24
  %49 = phi i64 [ %20, %.thread ], [ %48, %47 ], [ %28, %24 ], [ %28, %30 ]
  %50 = phi ptr [ %21, %.thread ], [ %29, %47 ], [ %29, %24 ], [ %29, %30 ]
  %.fr = freeze i64 %49
  %51 = getelementptr inbounds nuw i8, ptr %0, i64 80
  %52 = load i32, ptr %51, align 8
  %53 = icmp eq i32 %52, 2
  br i1 %53, label %54, label %WaveAdjustToFactValue.exit

54:                                               ; preds = %thread-pre-split
  %55 = getelementptr inbounds nuw i8, ptr %0, i64 112
  %56 = load i32, ptr %55, align 8
  %57 = icmp eq i32 %56, 2
  %58 = getelementptr inbounds nuw i8, ptr %0, i64 84
  %59 = load i32, ptr %58, align 4
  %60 = zext i32 %59 to i64
  %61 = icmp slt i64 %.fr, %60
  %or.cond.i = select i1 %57, i1 %61, i1 false
  br i1 %or.cond.i, label %WaveAdjustToFactValue.exit.thread, label %._crit_edge.i

WaveAdjustToFactValue.exit.thread:                ; preds = %54
  %62 = tail call zeroext i1 (ptr, ...) @SDL_SetError_REAL(ptr noundef nonnull @.str.55) #8
  store i64 -1, ptr %50, align 8
  br label %65

._crit_edge.i:                                    ; preds = %54
  %63 = icmp sgt i64 %.fr, %60
  br i1 %63, label %WaveAdjustToFactValue.exit.thread53, label %WaveAdjustToFactValue.exit

WaveAdjustToFactValue.exit.thread53:              ; preds = %._crit_edge.i
  store i64 %60, ptr %50, align 8
  br label %66

WaveAdjustToFactValue.exit:                       ; preds = %thread-pre-split, %._crit_edge.i
  store i64 %.fr, ptr %50, align 8
  %64 = icmp slt i64 %.fr, 0
  br i1 %64, label %65, label %66

65:                                               ; preds = %WaveAdjustToFactValue.exit.thread, %WaveAdjustToFactValue.exit
  br label %66

66:                                               ; preds = %65, %WaveAdjustToFactValue.exit, %WaveAdjustToFactValue.exit.thread53, %22
  %.0 = phi i1 [ %23, %22 ], [ false, %65 ], [ true, %WaveAdjustToFactValue.exit ], [ true, %WaveAdjustToFactValue.exit.thread53 ]
  ret i1 %.0
}